target datalayout = "e-m:e-p270:32:32-p271:32:32-p272:64:64-i64:64-i128:128-f80:128-n8:16:32:64-S128"
target triple = "x86_64-pc-linux-gnu"

%struct.ForEachState = type { ptr, i32 }
%struct.List = type { i32, i32, i32, ptr, [0 x %union.ListCell] }
%union.ListCell = type { ptr }
%struct.Query = type { i32, i32, i32, i64, i8, ptr, i32, i8, i8, i8, i8, i8, i8, i8, i8, i8, i8, i8, ptr, ptr, ptr, ptr, ptr, i32, ptr, ptr, i32, ptr, ptr, ptr, ptr, ptr, i8, ptr, ptr, ptr, ptr, ptr, ptr, ptr, i32, ptr, ptr, ptr, ptr, i32, i32 }
%struct.RTEPermissionInfo = type { i32, i32, i8, i64, i32, ptr, ptr, ptr }
%struct.RangeTblEntry = type { i32, ptr, ptr, i32, i32, i8, i8, i32, i32, ptr, ptr, i8, i32, i32, ptr, ptr, ptr, ptr, ptr, i8, ptr, ptr, ptr, i32, i8, ptr, ptr, ptr, ptr, double, ptr, i8, i8, ptr }
%struct.CommonTableExpr = type { i32, ptr, ptr, i32, ptr, ptr, ptr, i32, i8, i32, ptr, ptr, ptr, ptr }

; Function Attrs: nounwind uwtable
define internal void @setRuleCheckAsUser_Query(ptr noundef %0, i32 noundef %1) #0 {
  %3 = alloca ptr, align 8
  %4 = alloca i32, align 4
  %5 = alloca ptr, align 8
  %6 = alloca %struct.ForEachState, align 8
  %7 = alloca ptr, align 8
  %8 = alloca %struct.ForEachState, align 8
  %9 = alloca ptr, align 8
  %10 = alloca %struct.ForEachState, align 8
  %11 = alloca ptr, align 8
  store ptr %0, ptr %3, align 8
  store i32 %1, ptr %4, align 4
  call void @llvm.lifetime.start.p0(i64 8, ptr %5) #8
  call void @llvm.lifetime.start.p0(i64 16, ptr %6) #8
  %12 = getelementptr inbounds nuw %struct.ForEachState, ptr %6, i32 0, i32 0
  %13 = load ptr, ptr %3, align 8
  %14 = getelementptr inbounds nuw %struct.Query, ptr %13, i32 0, i32 20
  %15 = load ptr, ptr %14, align 8
  store ptr %15, ptr %12, align 8
  %16 = getelementptr inbounds nuw %struct.ForEachState, ptr %6, i32 0, i32 1
  store i32 0, ptr %16, align 8
  %17 = getelementptr i8, ptr %6, i64 12
  call void @llvm.memset.p0.i64(ptr align 4 %17, i8 0, i64 4, i1 false)
  br label %18

18:                                               ; preds = %50, %2
  %19 = getelementptr inbounds nuw %struct.ForEachState, ptr %6, i32 0, i32 0
  %20 = load ptr, ptr %19, align 8
  %21 = icmp ne ptr %20, null
  br i1 %21, label %22, label %39

22:                                               ; preds = %18
  %23 = getelementptr inbounds nuw %struct.ForEachState, ptr %6, i32 0, i32 1
  %24 = load i32, ptr %23, align 8
  %25 = getelementptr inbounds nuw %struct.ForEachState, ptr %6, i32 0, i32 0
  %26 = load ptr, ptr %25, align 8
  %27 = getelementptr inbounds nuw %struct.List, ptr %26, i32 0, i32 1
  %28 = load i32, ptr %27, align 4
  %29 = icmp slt i32 %24, %28
  br i1 %29, label %30, label %39

30:                                               ; preds = %22
  %31 = getelementptr inbounds nuw %struct.ForEachState, ptr %6, i32 0, i32 0
  %32 = load ptr, ptr %31, align 8
  %33 = getelementptr inbounds nuw %struct.List, ptr %32, i32 0, i32 3
  %34 = load ptr, ptr %33, align 8
  %35 = getelementptr inbounds nuw %struct.ForEachState, ptr %6, i32 0, i32 1
  %36 = load i32, ptr %35, align 8
  %37 = sext i32 %36 to i64
  %38 = getelementptr inbounds %union.ListCell, ptr %34, i64 %37
  store ptr %38, ptr %5, align 8
  br label %40

39:                                               ; preds = %22, %18
  store ptr null, ptr %5, align 8
  br label %40

40:                                               ; preds = %39, %30
  %41 = phi i32 [ 1, %30 ], [ 0, %39 ]
  %42 = icmp ne i32 %41, 0
  br i1 %42, label %44, label %43

43:                                               ; preds = %40
  call void @llvm.lifetime.end.p0(i64 16, ptr %6) #8
  br label %54

44:                                               ; preds = %40
  call void @llvm.lifetime.start.p0(i64 8, ptr %7) #8
  %45 = load ptr, ptr %5, align 8
  %46 = load ptr, ptr %45, align 8
  store ptr %46, ptr %7, align 8
  %47 = load i32, ptr %4, align 4
  %48 = load ptr, ptr %7, align 8
  %49 = getelementptr inbounds nuw %struct.RTEPermissionInfo, ptr %48, i32 0, i32 4
  store i32 %47, ptr %49, align 8
  call void @llvm.lifetime.end.p0(i64 8, ptr %7) #8
  br label %50

50:                                               ; preds = %44
  %51 = getelementptr inbounds nuw %struct.ForEachState, ptr %6, i32 0, i32 1
  %52 = load i32, ptr %51, align 8
  %53 = add i32 %52, 1
  store i32 %53, ptr %51, align 8
  br label %18, !llvm.loop !11

54:                                               ; preds = %43
  call void @llvm.lifetime.start.p0(i64 16, ptr %8) #8
  %55 = getelementptr inbounds nuw %struct.ForEachState, ptr %8, i32 0, i32 0
  %56 = load ptr, ptr %3, align 8
  %57 = getelementptr inbounds nuw %struct.Query, ptr %56, i32 0, i32 19
  %58 = load ptr, ptr %57, align 8
  store ptr %58, ptr %55, align 8
  %59 = getelementptr inbounds nuw %struct.ForEachState, ptr %8, i32 0, i32 1
  store i32 0, ptr %59, align 8
  %60 = getelementptr i8, ptr %8, i64 12
  call void @llvm.memset.p0.i64(ptr align 4 %60, i8 0, i64 4, i1 false)
  br label %61

61:                                               ; preds = %100, %54
  %62 = getelementptr inbounds nuw %struct.ForEachState, ptr %8, i32 0, i32 0
  %63 = load ptr, ptr %62, align 8
  %64 = icmp ne ptr %63, null
  br i1 %64, label %65, label %82

65:                                               ; preds = %61
  %66 = getelementptr inbounds nuw %struct.ForEachState, ptr %8, i32 0, i32 1
  %67 = load i32, ptr %66, align 8
  %68 = getelementptr inbounds nuw %struct.ForEachState, ptr %8, i32 0, i32 0
  %69 = load ptr, ptr %68, align 8
  %70 = getelementptr inbounds nuw %struct.List, ptr %69, i32 0, i32 1
  %71 = load i32, ptr %70, align 4
  %72 = icmp slt i32 %67, %71
  br i1 %72, label %73, label %82

73:                                               ; preds = %65
  %74 = getelementptr inbounds nuw %struct.ForEachState, ptr %8, i32 0, i32 0
  %75 = load ptr, ptr %74, align 8
  %76 = getelementptr inbounds nuw %struct.List, ptr %75, i32 0, i32 3
  %77 = load ptr, ptr %76, align 8
  %78 = getelementptr inbounds nuw %struct.ForEachState, ptr %8, i32 0, i32 1
  %79 = load i32, ptr %78, align 8
  %80 = sext i32 %79 to i64
  %81 = getelementptr inbounds %union.ListCell, ptr %77, i64 %80
  store ptr %81, ptr %5, align 8
  br label %83

82:                                               ; preds = %65, %61
  store ptr null, ptr %5, align 8
  br label %83

83:                                               ; preds = %82, %73
  %84 = phi i32 [ 1, %73 ], [ 0, %82 ]
  %85 = icmp ne i32 %84, 0
  br i1 %85, label %87, label %86

86:                                               ; preds = %83
  call void @llvm.lifetime.end.p0(i64 16, ptr %8) #8
  br label %104

87:                                               ; preds = %83
  call void @llvm.lifetime.start.p0(i64 8, ptr %9) #8
  %88 = load ptr, ptr %5, align 8
  %89 = load ptr, ptr %88, align 8
  store ptr %89, ptr %9, align 8
  %90 = load ptr, ptr %9, align 8
  %91 = getelementptr inbounds nuw %struct.RangeTblEntry, ptr %90, i32 0, i32 3
  %92 = load i32, ptr %91, align 8
  %93 = icmp eq i32 %92, 1
  br i1 %93, label %94, label %99

94:                                               ; preds = %87
  %95 = load ptr, ptr %9, align 8
  %96 = getelementptr inbounds nuw %struct.RangeTblEntry, ptr %95, i32 0, i32 10
  %97 = load ptr, ptr %96, align 8
  %98 = load i32, ptr %4, align 4
  call void @setRuleCheckAsUser_Query(ptr noundef %97, i32 noundef %98)
  br label %99

99:                                               ; preds = %94, %87
  call void @llvm.lifetime.end.p0(i64 8, ptr %9) #8
  br label %100

100:                                              ; preds = %99
  %101 = getelementptr inbounds nuw %struct.ForEachState, ptr %8, i32 0, i32 1
  %102 = load i32, ptr %101, align 8
  %103 = add i32 %102, 1
  store i32 %103, ptr %101, align 8
  br label %61, !llvm.loop !12

104:                                              ; preds = %86
  call void @llvm.lifetime.start.p0(i64 16, ptr %10) #8
  %105 = getelementptr inbounds nuw %struct.ForEachState, ptr %10, i32 0, i32 0
  %106 = load ptr, ptr %3, align 8
  %107 = getelementptr inbounds nuw %struct.Query, ptr %106, i32 0, i32 18
  %108 = load ptr, ptr %107, align 8
  store ptr %108, ptr %105, align 8
  %109 = getelementptr inbounds nuw %struct.ForEachState, ptr %10, i32 0, i32 1
  store i32 0, ptr %109, align 8
  %110 = getelementptr i8, ptr %10, i64 12
  call void @llvm.memset.p0.i64(ptr align 4 %110, i8 0, i64 4, i1 false)
  br label %111

111:                                              ; preds = %144, %104
  %112 = getelementptr inbounds nuw %struct.ForEachState, ptr %10, i32 0, i32 0
  %113 = load ptr, ptr %112, align 8
  %114 = icmp ne ptr %113, null
  br i1 %114, label %115, label %132

115:                                              ; preds = %111
  %116 = getelementptr inbounds nuw %struct.ForEachState, ptr %10, i32 0, i32 1
  %117 = load i32, ptr %116, align 8
  %118 = getelementptr inbounds nuw %struct.ForEachState, ptr %10, i32 0, i32 0
  %119 = load ptr, ptr %118, align 8
  %120 = getelementptr inbounds nuw %struct.List, ptr %119, i32 0, i32 1
  %121 = load i32, ptr %120, align 4
  %122 = icmp slt i32 %117, %121
  br i1 %122, label %123, label %132

123:                                              ; preds = %115
  %124 = getelementptr inbounds nuw %struct.ForEachState, ptr %10, i32 0, i32 0
  %125 = load ptr, ptr %124, align 8
  %126 = getelementptr inbounds nuw %struct.List, ptr %125, i32 0, i32 3
  %127 = load ptr, ptr %126, align 8
  %128 = getelementptr inbounds nuw %struct.ForEachState, ptr %10, i32 0, i32 1
  %129 = load i32, ptr %128, align 8
  %130 = sext i32 %129 to i64
  %131 = getelementptr inbounds %union.ListCell, ptr %127, i64 %130
  store ptr %131, ptr %5, align 8
  br label %133

132:                                              ; preds = %115, %111
  store ptr null, ptr %5, align 8
  br label %133

133:                                              ; preds = %132, %123
  %134 = phi i32 [ 1, %123 ], [ 0, %132 ]
  %135 = icmp ne i32 %134, 0
  br i1 %135, label %137, label %136

136:                                              ; preds = %133
  call void @llvm.lifetime.end.p0(i64 16, ptr %10) #8
  br label %148

137:                                              ; preds = %133
  call void @llvm.lifetime.start.p0(i64 8, ptr %11) #8
  %138 = load ptr, ptr %5, align 8
  %139 = load ptr, ptr %138, align 8
  store ptr %139, ptr %11, align 8
  %140 = load ptr, ptr %11, align 8
  %141 = getelementptr inbounds nuw %struct.CommonTableExpr, ptr %140, i32 0, i32 4
  %142 = load ptr, ptr %141, align 8
  %143 = load i32, ptr %4, align 4
  call void @setRuleCheckAsUser_Query(ptr noundef %142, i32 noundef %143)
  call void @llvm.lifetime.end.p0(i64 8, ptr %11) #8
  br label %144

144:                                              ; preds = %137
  %145 = getelementptr inbounds nuw %struct.ForEachState, ptr %10, i32 0, i32 1
  %146 = load i32, ptr %145, align 8
  %147 = add i32 %146, 1
  store i32 %147, ptr %145, align 8
  br label %111, !llvm.loop !13

148:                                              ; preds = %136
  %149 = load ptr, ptr %3, align 8
  %150 = getelementptr inbounds nuw %struct.Query, ptr %149, i32 0, i32 10
  %151 = load i8, ptr %150, align 1, !range !4, !noundef !5
  %152 = trunc i8 %151 to i1
  br i1 %152, label %153, label %156

153:                                              ; preds = %148
  %154 = load ptr, ptr %3, align 8
  %155 = call zeroext i1 @query_tree_walker_impl(ptr noundef %154, ptr noundef @setRuleCheckAsUser_walker, ptr noundef %4, i32 noundef 3)
  br label %156

156:                                              ; preds = %153, %148
  call void @llvm.lifetime.end.p0(i64 8, ptr %5) #8
  ret void
}