; Function Attrs: nounwind uwtable
define internal fastcc void @setRuleCheckAsUser_Query(ptr noundef %0, i32 noundef %1) unnamed_addr #0 {
  %3 = alloca i32, align 4
  store i32 %1, ptr %3, align 4
  %4 = getelementptr inbounds nuw i8, ptr %0, i64 72
  %5 = load ptr, ptr %4, align 8
  %6 = getelementptr inbounds nuw i8, ptr %5, i64 4
  %.not = icmp eq ptr %5, null
  br i1 %.not, label %._crit_edge, label %.lr.ph

.lr.ph:                                           ; preds = %2
  %7 = getelementptr inbounds nuw i8, ptr %5, i64 16
  %8 = load i32, ptr %6, align 4
  %9 = icmp sgt i32 %8, 0
  br i1 %9, label %.lr.ph51, label %._crit_edge

._crit_edge:                                      ; preds = %.lr.ph51, %.lr.ph, %2
  %10 = getelementptr inbounds nuw i8, ptr %0, i64 64
  %11 = load ptr, ptr %10, align 8
  %12 = getelementptr inbounds nuw i8, ptr %11, i64 4
  %.not34 = icmp eq ptr %11, null
  br i1 %.not34, label %._crit_edge55, label %.lr.ph54

.lr.ph54:                                         ; preds = %._crit_edge
  %13 = getelementptr inbounds nuw i8, ptr %11, i64 16
  %14 = load i32, ptr %12, align 4
  %15 = icmp sgt i32 %14, 0
  br i1 %15, label %.lr.ph58, label %._crit_edge55

.lr.ph51:                                         ; preds = %.lr.ph, %.lr.ph51
  %indvars.iv = phi i64 [ %indvars.iv.next, %.lr.ph51 ], [ 0, %.lr.ph ]
  %16 = load ptr, ptr %7, align 8
  %17 = getelementptr inbounds nuw %union.ListCell, ptr %16, i64 %indvars.iv
  %18 = load ptr, ptr %17, align 8
  %19 = getelementptr inbounds nuw i8, ptr %18, i64 24
  store i32 %1, ptr %19, align 8
  %indvars.iv.next = add nuw nsw i64 %indvars.iv, 1
  %20 = load i32, ptr %6, align 4
  %21 = sext i32 %20 to i64
  %22 = icmp slt i64 %indvars.iv.next, %21
  br i1 %22, label %.lr.ph51, label %._crit_edge

._crit_edge55:                                    ; preds = %39, %.lr.ph54, %._crit_edge
  %23 = getelementptr inbounds nuw i8, ptr %0, i64 56
  %24 = load ptr, ptr %23, align 8
  %25 = getelementptr inbounds nuw i8, ptr %24, i64 4
  %.not36 = icmp eq ptr %24, null
  br i1 %.not36, label %._crit_edge62, label %.lr.ph61

.lr.ph61:                                         ; preds = %._crit_edge55
  %26 = getelementptr inbounds nuw i8, ptr %24, i64 16
  %27 = load i32, ptr %25, align 4
  %28 = icmp sgt i32 %27, 0
  br i1 %28, label %.lr.ph65, label %._crit_edge62

.lr.ph58:                                         ; preds = %.lr.ph54, %39
  %29 = phi i32 [ %40, %39 ], [ %14, %.lr.ph54 ]
  %indvars.iv67 = phi i64 [ %indvars.iv.next68, %39 ], [ 0, %.lr.ph54 ]
  %30 = load ptr, ptr %13, align 8
  %31 = getelementptr inbounds nuw %union.ListCell, ptr %30, i64 %indvars.iv67
  %32 = load ptr, ptr %31, align 8
  %33 = getelementptr inbounds nuw i8, ptr %32, i64 24
  %34 = load i32, ptr %33, align 8
  %35 = icmp eq i32 %34, 1
  br i1 %35, label %36, label %39

36:                                               ; preds = %.lr.ph58
  %37 = getelementptr inbounds nuw i8, ptr %32, i64 56
  %38 = load ptr, ptr %37, align 8
  tail call fastcc void @setRuleCheckAsUser_Query(ptr noundef %38, i32 noundef %1)
  %.pre = load i32, ptr %12, align 4
  br label %39

39:                                               ; preds = %36, %.lr.ph58
  %40 = phi i32 [ %.pre, %36 ], [ %29, %.lr.ph58 ]
  %indvars.iv.next68 = add nuw nsw i64 %indvars.iv67, 1
  %41 = sext i32 %40 to i64
  %42 = icmp slt i64 %indvars.iv.next68, %41
  br i1 %42, label %.lr.ph58, label %._crit_edge55

._crit_edge62:                                    ; preds = %.lr.ph65, %.lr.ph61, %._crit_edge55
  %43 = getelementptr inbounds nuw i8, ptr %0, i64 47
  %44 = load i8, ptr %43, align 1, !range !4, !noundef !5
  %45 = trunc nuw i8 %44 to i1
  br i1 %45, label %54, label %56

.lr.ph65:                                         ; preds = %.lr.ph61, %.lr.ph65
  %indvars.iv70 = phi i64 [ %indvars.iv.next71, %.lr.ph65 ], [ 0, %.lr.ph61 ]
  %46 = load ptr, ptr %26, align 8
  %47 = getelementptr inbounds nuw %union.ListCell, ptr %46, i64 %indvars.iv70
  %48 = load ptr, ptr %47, align 8
  %49 = getelementptr inbounds nuw i8, ptr %48, i64 32
  %50 = load ptr, ptr %49, align 8
  tail call fastcc void @setRuleCheckAsUser_Query(ptr noundef %50, i32 noundef %1)
  %indvars.iv.next71 = add nuw nsw i64 %indvars.iv70, 1
  %51 = load i32, ptr %25, align 4
  %52 = sext i32 %51 to i64
  %53 = icmp slt i64 %indvars.iv.next71, %52
  br i1 %53, label %.lr.ph65, label %._crit_edge62

54:                                               ; preds = %._crit_edge62
  %55 = call zeroext i1 @query_tree_walker_impl(ptr noundef nonnull %0, ptr noundef nonnull @setRuleCheckAsUser_walker, ptr noundef nonnull %3, i32 noundef 3) #6
  br label %56

56:                                               ; preds = %54, %._crit_edge62
  ret void
}